; Function Attrs: nounwind uwtable
define noalias noundef ptr @Gia_Iso2ManCollectTies(ptr noundef readonly captures(none) %0) local_unnamed_addr #0 {
  %2 = getelementptr i8, ptr %0, i64 64
  %.val.i = load ptr, ptr %2, align 8, !tbaa !3
  %3 = getelementptr i8, ptr %.val.i, i64 4
  %.val.val.i = load i32, ptr %3, align 4, !tbaa !28
  %4 = getelementptr inbounds nuw i8, ptr %0, i64 24
  %5 = load i32, ptr %4, align 8, !tbaa !29
  %6 = getelementptr inbounds nuw i8, ptr %0, i64 72
  %7 = load ptr, ptr %6, align 8, !tbaa !30
  %8 = getelementptr i8, ptr %7, i64 4
  %.val.i.i = load i32, ptr %8, align 4, !tbaa !28
  %9 = add i32 %.val.i.i, %.val.val.i
  %10 = xor i32 %9, -1
  %11 = add i32 %5, %.val.val.i
  %12 = add i32 %11, %10
  %13 = tail call noalias dereferenceable_or_null(16) ptr @malloc(i64 noundef 16) #24
  %14 = add i32 %12, -1
  %or.cond.i = icmp ult i32 %14, 15
  %spec.store.select.i = select i1 %or.cond.i, i32 16, i32 %12
  %15 = getelementptr inbounds nuw i8, ptr %13, i64 4
  store i32 0, ptr %15, align 4, !tbaa !28
  store i32 %spec.store.select.i, ptr %13, align 8, !tbaa !31
  %.not.i = icmp eq i32 %spec.store.select.i, 0
  br i1 %.not.i, label %Vec_IntAlloc.exit, label %16

16:                                               ; preds = %1
  %17 = sext i32 %spec.store.select.i to i64
  %18 = shl nsw i64 %17, 2
  %19 = tail call noalias ptr @malloc(i64 noundef %18) #24
  br label %Vec_IntAlloc.exit

Vec_IntAlloc.exit:                                ; preds = %1, %16
  %20 = phi ptr [ %19, %16 ], [ null, %1 ]
  %21 = getelementptr inbounds nuw i8, ptr %13, i64 8
  store ptr %20, ptr %21, align 8, !tbaa !32
  %22 = getelementptr i8, ptr %0, i64 32
  %23 = icmp sgt i32 %5, 0
  br i1 %23, label %.lr.ph, label %.critedge

.lr.ph:                                           ; preds = %Vec_IntAlloc.exit, %55
  %24 = phi i32 [ %56, %55 ], [ %5, %Vec_IntAlloc.exit ]
  %25 = phi ptr [ %.pre.i18, %55 ], [ %20, %Vec_IntAlloc.exit ]
  %indvars.iv = phi i64 [ %indvars.iv.next, %55 ], [ 0, %Vec_IntAlloc.exit ]
  %.val = load ptr, ptr %22, align 8, !tbaa !33
  %.not = icmp eq ptr %.val, null
  br i1 %.not, label %.critedge, label %26

26:                                               ; preds = %.lr.ph
  %27 = getelementptr inbounds nuw %struct.Gia_Obj_t_, ptr %.val, i64 %indvars.iv
  %.val11 = load i64, ptr %27, align 4
  %28 = and i64 %.val11, 2147483648
  %.not.i.i = icmp ne i64 %28, 0
  %29 = and i64 %.val11, 536870911
  %30 = icmp eq i64 %29, 536870911
  %narrow.i.not.not.i.not13 = or i1 %.not.i.i, %30
  %31 = and i64 %.val11, 2684354559
  %narrow.i3.i = icmp ne i64 %31, 2684354559
  %narrow.i.not = and i1 %narrow.i3.i, %narrow.i.not.not.i.not13
  br i1 %narrow.i.not, label %55, label %32

32:                                               ; preds = %26
  %33 = load i32, ptr %15, align 4, !tbaa !28
  %34 = load i32, ptr %13, align 8, !tbaa !31
  %35 = icmp eq i32 %33, %34
  br i1 %35, label %36, label %Vec_IntPush.exit

36:                                               ; preds = %32
  %37 = icmp slt i32 %33, 16
  br i1 %37, label %38, label %43

38:                                               ; preds = %36
  %.not9.i.i = icmp eq ptr %25, null
  br i1 %.not9.i.i, label %41, label %39

39:                                               ; preds = %38
  %40 = tail call dereferenceable_or_null(64) ptr @realloc(ptr noundef nonnull %25, i64 noundef 64) #25
  br label %Vec_IntPush.exit.sink.split

41:                                               ; preds = %38
  %42 = tail call noalias dereferenceable_or_null(64) ptr @malloc(i64 noundef 64) #24
  br label %Vec_IntPush.exit.sink.split

43:                                               ; preds = %36
  %44 = shl nuw nsw i32 %33, 1
  %.not9.i9.i = icmp eq ptr %25, null
  %45 = zext nneg i32 %44 to i64
  %46 = shl nuw nsw i64 %45, 2
  br i1 %.not9.i9.i, label %49, label %47

47:                                               ; preds = %43
  %48 = tail call ptr @realloc(ptr noundef nonnull %25, i64 noundef %46) #25
  br label %Vec_IntPush.exit.sink.split

49:                                               ; preds = %43
  %50 = tail call noalias ptr @malloc(i64 noundef %46) #24
  br label %Vec_IntPush.exit.sink.split

Vec_IntPush.exit.sink.split:                      ; preds = %47, %49, %39, %41
  %.sink20 = phi ptr [ %40, %39 ], [ %42, %41 ], [ %48, %47 ], [ %50, %49 ]
  %.sink = phi i32 [ 16, %39 ], [ 16, %41 ], [ %44, %47 ], [ %44, %49 ]
  store ptr %.sink20, ptr %21, align 8, !tbaa !32
  store i32 %.sink, ptr %13, align 8, !tbaa !31
  br label %Vec_IntPush.exit

Vec_IntPush.exit:                                 ; preds = %Vec_IntPush.exit.sink.split, %32
  %.pre.i19 = phi ptr [ %25, %32 ], [ %.sink20, %Vec_IntPush.exit.sink.split ]
  %51 = add nsw i32 %33, 1
  store i32 %51, ptr %15, align 4, !tbaa !28
  %52 = sext i32 %33 to i64
  %53 = getelementptr inbounds i32, ptr %.pre.i19, i64 %52
  %54 = trunc nuw nsw i64 %indvars.iv to i32
  store i32 %54, ptr %53, align 4, !tbaa !34
  %.pre = load i32, ptr %4, align 8, !tbaa !29
  br label %55

55:                                               ; preds = %Vec_IntPush.exit, %26
  %56 = phi i32 [ %.pre, %Vec_IntPush.exit ], [ %24, %26 ]
  %.pre.i18 = phi ptr [ %.pre.i19, %Vec_IntPush.exit ], [ %25, %26 ]
  %indvars.iv.next = add nuw nsw i64 %indvars.iv, 1
  %57 = sext i32 %56 to i64
  %58 = icmp slt i64 %indvars.iv.next, %57
  br i1 %58, label %.lr.ph, label %.critedge, !llvm.loop !35

.critedge:                                        ; preds = %.lr.ph, %55, %Vec_IntAlloc.exit
  ret ptr %13
}